; Function Attrs: nofree norecurse nosync nounwind memory(read, inaccessiblemem: none) uwtable
define i32 @Map_MappingCountAllCuts(ptr noundef readonly captures(none) %0) local_unnamed_addr #0 {
  %2 = getelementptr inbounds nuw i8, ptr %0, i64 8
  %3 = load i32, ptr %2, align 8, !tbaa !3
  %4 = icmp sgt i32 %3, 0
  br i1 %4, label %.lr.ph31, label %._crit_edge32

.lr.ph31:                                         ; preds = %1
  %5 = load ptr, ptr %0, align 8, !tbaa !22
  %wide.trip.count = zext nneg i32 %3 to i64
  br label %6

6:                                                ; preds = %.lr.ph31, %._crit_edge26
  %indvars.iv = phi i64 [ 0, %.lr.ph31 ], [ %indvars.iv.next, %._crit_edge26 ]
  %.029 = phi i32 [ 0, %.lr.ph31 ], [ %.1.lcssa, %._crit_edge26 ]
  %7 = getelementptr inbounds nuw ptr, ptr %5, i64 %indvars.iv
  %.01420 = load ptr, ptr %7, align 8, !tbaa !23
  %.not21 = icmp eq ptr %.01420, null
  br i1 %.not21, label %._crit_edge26, label %.lr.ph25

.lr.ph25:                                         ; preds = %6, %._crit_edge
  %.01423 = phi ptr [ %.014, %._crit_edge ], [ %.01420, %6 ]
  %.122 = phi i32 [ %.2.lcssa, %._crit_edge ], [ %.029, %6 ]
  %8 = getelementptr inbounds nuw i8, ptr %.01423, i64 160
  %.01316 = load ptr, ptr %8, align 8, !tbaa !24
  %.not1517 = icmp eq ptr %.01316, null
  br i1 %.not1517, label %._crit_edge, label %.lr.ph

.lr.ph:                                           ; preds = %.lr.ph25, %.lr.ph
  %.01319 = phi ptr [ %.013, %.lr.ph ], [ %.01316, %.lr.ph25 ]
  %.218 = phi i32 [ %spec.select, %.lr.ph ], [ %.122, %.lr.ph25 ]
  %9 = getelementptr inbounds nuw i8, ptr %.01319, i64 76
  %10 = load i8, ptr %9, align 4, !tbaa !26
  %11 = icmp sgt i8 %10, 1
  %12 = zext i1 %11 to i32
  %spec.select = add nsw i32 %.218, %12
  %.013 = load ptr, ptr %.01319, align 8, !tbaa !24
  %.not15 = icmp eq ptr %.013, null
  br i1 %.not15, label %._crit_edge, label %.lr.ph, !llvm.loop !28

._crit_edge:                                      ; preds = %.lr.ph, %.lr.ph25
  %.2.lcssa = phi i32 [ %.122, %.lr.ph25 ], [ %spec.select, %.lr.ph ]
  %13 = getelementptr inbounds nuw i8, ptr %.01423, i64 8
  %.014 = load ptr, ptr %13, align 8, !tbaa !23
  %.not = icmp eq ptr %.014, null
  br i1 %.not, label %._crit_edge26, label %.lr.ph25, !llvm.loop !30

._crit_edge26:                                    ; preds = %._crit_edge, %6
  %.1.lcssa = phi i32 [ %.029, %6 ], [ %.2.lcssa, %._crit_edge ]
  %indvars.iv.next = add nuw nsw i64 %indvars.iv, 1
  %exitcond.not = icmp eq i64 %indvars.iv.next, %wide.trip.count
  br i1 %exitcond.not, label %._crit_edge32, label %6, !llvm.loop !31

._crit_edge32:                                    ; preds = %._crit_edge26, %1
  %.0.lcssa = phi i32 [ 0, %1 ], [ %.1.lcssa, %._crit_edge26 ]
  ret i32 %.0.lcssa
}